target datalayout = "e-m:e-p270:32:32-p271:32:32-p272:64:64-i64:64-i128:128-f80:128-n8:16:32:64-S128"
target triple = "x86_64-pc-linux-gnu"

%struct.lean_object = type { i32, i32 }
%struct.lean_ctor_object = type { %struct.lean_object, [0 x ptr] }

; Function Attrs: inlinehint nounwind uwtable
define internal ptr @lean_to_ctor(ptr noundef %0) #0 {
  %2 = alloca ptr, align 8
  store ptr %0, ptr %2, align 8, !tbaa !8
  %3 = load ptr, ptr %2, align 8, !tbaa !8
  ret ptr %3
}

; Function Attrs: inlinehint nounwind uwtable
define internal ptr @lean_ctor_obj_cptr(ptr noundef %0) #0 {
  %2 = alloca ptr, align 8
  store ptr %0, ptr %2, align 8, !tbaa !8
  %3 = load ptr, ptr %2, align 8, !tbaa !8
  %4 = call ptr @lean_to_ctor(ptr noundef %3)
  %5 = getelementptr inbounds nuw %struct.lean_ctor_object, ptr %4, i32 0, i32 1
  %6 = getelementptr inbounds [0 x ptr], ptr %5, i64 0, i64 0
  ret ptr %6
}

; Function Attrs: inlinehint nounwind uwtable
define internal i64 @lean_ctor_get_usize(ptr noundef %0, i32 noundef %1) #0 {
  %3 = alloca ptr, align 8
  %4 = alloca i32, align 4
  store ptr %0, ptr %3, align 8, !tbaa !8
  store i32 %1, ptr %4, align 4, !tbaa !11
  %5 = load ptr, ptr %3, align 8, !tbaa !8
  %6 = call ptr @lean_ctor_obj_cptr(ptr noundef %5)
  %7 = load i32, ptr %4, align 4, !tbaa !11
  %8 = zext i32 %7 to i64
  %9 = getelementptr inbounds nuw ptr, ptr %6, i64 %8
  %10 = load i64, ptr %9, align 8, !tbaa !4
  ret i64 %10
}

; Function Attrs: alwaysinline nounwind uwtable
define internal void @lean_dec_ref(ptr noundef %0) #1 {
  %2 = alloca ptr, align 8
  store ptr %0, ptr %2, align 8, !tbaa !8
  %3 = load ptr, ptr %2, align 8, !tbaa !8
  %4 = getelementptr inbounds nuw %struct.lean_object, ptr %3, i32 0, i32 0
  %5 = load i32, ptr %4, align 4, !tbaa !13
  %6 = icmp sgt i32 %5, 1
  %7 = zext i1 %6 to i32
  %8 = sext i32 %7 to i64
  %9 = call i64 @llvm.expect.i64(i64 %8, i64 1)
  %10 = icmp ne i64 %9, 0
  br i1 %10, label %11, label %16

11:                                               ; preds = %1
  %12 = load ptr, ptr %2, align 8, !tbaa !8
  %13 = getelementptr inbounds nuw %struct.lean_object, ptr %12, i32 0, i32 0
  %14 = load i32, ptr %13, align 4, !tbaa !13
  %15 = add i32 %14, -1
  store i32 %15, ptr %13, align 4, !tbaa !13
  br label %24

16:                                               ; preds = %1
  %17 = load ptr, ptr %2, align 8, !tbaa !8
  %18 = getelementptr inbounds nuw %struct.lean_object, ptr %17, i32 0, i32 0
  %19 = load i32, ptr %18, align 4, !tbaa !13
  %20 = icmp ne i32 %19, 0
  br i1 %20, label %21, label %23

21:                                               ; preds = %16
  %22 = load ptr, ptr %2, align 8, !tbaa !8
  call void @lean_dec_ref_cold(ptr noundef %22)
  br label %23

23:                                               ; preds = %21, %16
  br label %24

24:                                               ; preds = %23, %11
  ret void
}

; Function Attrs: alwaysinline nounwind uwtable
define internal zeroext i1 @lean_is_scalar(ptr noundef %0) #1 {
  %2 = alloca ptr, align 8
  store ptr %0, ptr %2, align 8, !tbaa !8
  %3 = load ptr, ptr %2, align 8, !tbaa !8
  %4 = ptrtoint ptr %3 to i64
  %5 = and i64 %4, 1
  %6 = icmp eq i64 %5, 1
  ret i1 %6
}

; Function Attrs: inlinehint nounwind uwtable
define internal i64 @lean_unbox_usize(ptr noundef %0) #0 {
  %2 = alloca ptr, align 8
  store ptr %0, ptr %2, align 8, !tbaa !8
  %3 = load ptr, ptr %2, align 8, !tbaa !8
  %4 = call i64 @lean_ctor_get_usize(ptr noundef %3, i32 noundef 0)
  ret i64 %4
}

; Function Attrs: alwaysinline nounwind uwtable
define internal void @lean_dec(ptr noundef %0) #1 {
  %2 = alloca ptr, align 8
  store ptr %0, ptr %2, align 8, !tbaa !8
  %3 = load ptr, ptr %2, align 8, !tbaa !8
  %4 = call zeroext i1 @lean_is_scalar(ptr noundef %3)
  br i1 %4, label %7, label %5

5:                                                ; preds = %1
  %6 = load ptr, ptr %2, align 8, !tbaa !8
  call void @lean_dec_ref(ptr noundef %6)
  br label %7

7:                                                ; preds = %5, %1
  ret void
}

; Function Attrs: inlinehint nounwind uwtable
define internal i64 @lean_unbox(ptr noundef %0) #0 {
  %2 = alloca ptr, align 8
  store ptr %0, ptr %2, align 8, !tbaa !8
  %3 = load ptr, ptr %2, align 8, !tbaa !8
  %4 = ptrtoint ptr %3 to i64
  %5 = lshr i64 %4, 1
  ret i64 %5
}

; Function Attrs: nounwind uwtable
define ptr @l_Array_forIn_x27Unsafe_loop___at_Lean_Meta_getFVarSetToGeneralize___spec__68___boxed(ptr noundef %0, ptr noundef %1, ptr noundef %2, ptr noundef %3, ptr noundef %4, ptr noundef %5, ptr noundef %6, ptr noundef %7, ptr noundef %8, ptr noundef %9, ptr noundef %10, ptr noundef %11, ptr noundef %12, ptr noundef %13, ptr noundef %14, ptr noundef %15) #2 {
  %17 = alloca ptr, align 8
  %18 = alloca ptr, align 8
  %19 = alloca ptr, align 8
  %20 = alloca ptr, align 8
  %21 = alloca ptr, align 8
  %22 = alloca ptr, align 8
  %23 = alloca ptr, align 8
  %24 = alloca ptr, align 8
  %25 = alloca ptr, align 8
  %26 = alloca ptr, align 8
  %27 = alloca ptr, align 8
  %28 = alloca ptr, align 8
  %29 = alloca ptr, align 8
  %30 = alloca ptr, align 8
  %31 = alloca ptr, align 8
  %32 = alloca ptr, align 8
  %33 = alloca i8, align 1
  %34 = alloca i64, align 8
  %35 = alloca i64, align 8
  %36 = alloca ptr, align 8
  store ptr %0, ptr %17, align 8, !tbaa !8
  store ptr %1, ptr %18, align 8, !tbaa !8
  store ptr %2, ptr %19, align 8, !tbaa !8
  store ptr %3, ptr %20, align 8, !tbaa !8
  store ptr %4, ptr %21, align 8, !tbaa !8
  store ptr %5, ptr %22, align 8, !tbaa !8
  store ptr %6, ptr %23, align 8, !tbaa !8
  store ptr %7, ptr %24, align 8, !tbaa !8
  store ptr %8, ptr %25, align 8, !tbaa !8
  store ptr %9, ptr %26, align 8, !tbaa !8
  store ptr %10, ptr %27, align 8, !tbaa !8
  store ptr %11, ptr %28, align 8, !tbaa !8
  store ptr %12, ptr %29, align 8, !tbaa !8
  store ptr %13, ptr %30, align 8, !tbaa !8
  store ptr %14, ptr %31, align 8, !tbaa !8
  store ptr %15, ptr %32, align 8, !tbaa !8
  br label %37

37:                                               ; preds = %16
  call void @llvm.lifetime.start.p0(i64 1, ptr %33) #7
  call void @llvm.lifetime.start.p0(i64 8, ptr %34) #7
  call void @llvm.lifetime.start.p0(i64 8, ptr %35) #7
  call void @llvm.lifetime.start.p0(i64 8, ptr %36) #7
  %38 = load ptr, ptr %18, align 8, !tbaa !8
  %39 = call i64 @lean_unbox(ptr noundef %38)
  %40 = trunc i64 %39 to i8
  store i8 %40, ptr %33, align 1, !tbaa !10
  %41 = load ptr, ptr %18, align 8, !tbaa !8
  call void @lean_dec(ptr noundef %41)
  %42 = load ptr, ptr %25, align 8, !tbaa !8
  %43 = call i64 @lean_unbox_usize(ptr noundef %42)
  store i64 %43, ptr %34, align 8, !tbaa !4
  %44 = load ptr, ptr %25, align 8, !tbaa !8
  call void @lean_dec(ptr noundef %44)
  %45 = load ptr, ptr %26, align 8, !tbaa !8
  %46 = call i64 @lean_unbox_usize(ptr noundef %45)
  store i64 %46, ptr %35, align 8, !tbaa !4
  %47 = load ptr, ptr %26, align 8, !tbaa !8
  call void @lean_dec(ptr noundef %47)
  %48 = load ptr, ptr %17, align 8, !tbaa !8
  %49 = load i8, ptr %33, align 1, !tbaa !10
  %50 = load ptr, ptr %19, align 8, !tbaa !8
  %51 = load ptr, ptr %20, align 8, !tbaa !8
  %52 = load ptr, ptr %21, align 8, !tbaa !8
  %53 = load ptr, ptr %22, align 8, !tbaa !8
  %54 = load ptr, ptr %23, align 8, !tbaa !8
  %55 = load ptr, ptr %24, align 8, !tbaa !8
  %56 = load i64, ptr %34, align 8, !tbaa !4
  %57 = load i64, ptr %35, align 8, !tbaa !4
  %58 = load ptr, ptr %27, align 8, !tbaa !8
  %59 = load ptr, ptr %28, align 8, !tbaa !8
  %60 = load ptr, ptr %29, align 8, !tbaa !8
  %61 = load ptr, ptr %30, align 8, !tbaa !8
  %62 = load ptr, ptr %31, align 8, !tbaa !8
  %63 = load ptr, ptr %32, align 8, !tbaa !8
  %64 = call ptr @l_Array_forIn_x27Unsafe_loop___at_Lean_Meta_getFVarSetToGeneralize___spec__68(ptr noundef %48, i8 noundef zeroext %49, ptr noundef %50, ptr noundef %51, ptr noundef %52, ptr noundef %53, ptr noundef %54, ptr noundef %55, i64 noundef %56, i64 noundef %57, ptr noundef %58, ptr noundef %59, ptr noundef %60, ptr noundef %61, ptr noundef %62, ptr noundef %63)
  store ptr %64, ptr %36, align 8, !tbaa !8
  %65 = load ptr, ptr %31, align 8, !tbaa !8
  call void @lean_dec(ptr noundef %65)
  %66 = load ptr, ptr %30, align 8, !tbaa !8
  call void @lean_dec(ptr noundef %66)
  %67 = load ptr, ptr %29, align 8, !tbaa !8
  call void @lean_dec(ptr noundef %67)
  %68 = load ptr, ptr %28, align 8, !tbaa !8
  call void @lean_dec(ptr noundef %68)
  %69 = load ptr, ptr %24, align 8, !tbaa !8
  call void @lean_dec(ptr noundef %69)
  %70 = load ptr, ptr %22, align 8, !tbaa !8
  call void @lean_dec(ptr noundef %70)
  %71 = load ptr, ptr %21, align 8, !tbaa !8
  call void @lean_dec(ptr noundef %71)
  %72 = load ptr, ptr %20, align 8, !tbaa !8
  call void @lean_dec(ptr noundef %72)
  %73 = load ptr, ptr %17, align 8, !tbaa !8
  call void @lean_dec(ptr noundef %73)
  %74 = load ptr, ptr %36, align 8, !tbaa !8
  call void @llvm.lifetime.end.p0(i64 8, ptr %36) #7
  call void @llvm.lifetime.end.p0(i64 8, ptr %35) #7
  call void @llvm.lifetime.end.p0(i64 8, ptr %34) #7
  call void @llvm.lifetime.end.p0(i64 1, ptr %33) #7
  ret ptr %74
}